; Function Attrs: inlinehint nounwind sspstrong uwtable
define internal fastcc zeroext i1 @f_zero_p(i64 noundef %0) unnamed_addr #3 {
  %2 = and i64 %0, 3
  %3 = icmp eq i64 %2, 2
  br i1 %3, label %13, label %4

4:                                                ; preds = %1
  %5 = icmp eq i64 %0, 0
  %6 = and i64 %0, 7
  %7 = icmp ne i64 %6, 0
  %8 = or i1 %5, %7
  br i1 %8, label %RB_FLOAT_TYPE_P.exit.thread11, label %RB_FLOAT_TYPE_P.exit

RB_FLOAT_TYPE_P.exit:                             ; preds = %4
  %9 = inttoptr i64 %0 to ptr
  %10 = load i64, ptr %9, align 8, !tbaa !19
  %11 = and i64 %10, 31
  %12 = icmp eq i64 %11, 4
  br i1 %12, label %20, label %RB_FLOAT_TYPE_P.exit.thread11

13:                                               ; preds = %1
  %.not.i.i.i = icmp eq i64 %0, -9223372036854775806
  br i1 %.not.i.i.i, label %FLOAT_ZERO_P.exit, label %14

14:                                               ; preds = %13
  %.neg.i.i.i = ashr i64 %0, 63
  %15 = add nsw i64 %.neg.i.i.i, 2
  %16 = and i64 %0, -4
  %17 = or i64 %15, %16
  %18 = tail call noundef i64 @llvm.fshl.i64(i64 range(i64 1, 0) %17, i64 range(i64 1, 0) %17, i64 61)
  %19 = bitcast i64 %18 to double
  br label %FLOAT_ZERO_P.exit

20:                                               ; preds = %RB_FLOAT_TYPE_P.exit
  %21 = getelementptr inbounds nuw i8, ptr %9, i64 16
  %22 = load double, ptr %21, align 8, !tbaa !21
  br label %FLOAT_ZERO_P.exit

FLOAT_ZERO_P.exit:                                ; preds = %13, %14, %20
  %.0.i.i = phi double [ %22, %20 ], [ %19, %14 ], [ 0.000000e+00, %13 ]
  %23 = fcmp oeq double %.0.i.i, 0.000000e+00
  br label %44

RB_FLOAT_TYPE_P.exit.thread11:                    ; preds = %4, %RB_FLOAT_TYPE_P.exit
  %24 = and i64 %0, 1
  %.not.i = icmp eq i64 %24, 0
  br i1 %.not.i, label %25, label %rb_integer_type_p.exit.thread

25:                                               ; preds = %RB_FLOAT_TYPE_P.exit.thread11
  %26 = and i64 %0, 6
  %27 = icmp ne i64 %26, 0
  %28 = or i1 %5, %27
  br i1 %28, label %rbimpl_RB_TYPE_P_fastpath.exit.thread, label %rb_integer_type_p.exit

rb_integer_type_p.exit:                           ; preds = %25
  %29 = inttoptr i64 %0 to ptr
  %30 = load i64, ptr %29, align 8, !tbaa !19
  %31 = and i64 %30, 31
  %32 = icmp eq i64 %31, 10
  br i1 %32, label %rb_integer_type_p.exit.thread, label %rbimpl_RB_TYPE_P_fastpath.exit

rb_integer_type_p.exit.thread:                    ; preds = %RB_FLOAT_TYPE_P.exit.thread11, %rb_integer_type_p.exit
  %33 = icmp eq i64 %0, 1
  br label %44

rbimpl_RB_TYPE_P_fastpath.exit:                   ; preds = %rb_integer_type_p.exit
  %34 = inttoptr i64 %0 to ptr
  %35 = load i64, ptr %34, align 8, !tbaa !19
  %36 = and i64 %35, 31
  %37 = icmp eq i64 %36, 15
  br i1 %37, label %38, label %rbimpl_RB_TYPE_P_fastpath.exit.thread

38:                                               ; preds = %rbimpl_RB_TYPE_P_fastpath.exit
  %39 = getelementptr inbounds nuw i8, ptr %34, i64 16
  %40 = load i64, ptr %39, align 8, !tbaa !23
  %41 = icmp eq i64 %40, 1
  br label %44

rbimpl_RB_TYPE_P_fastpath.exit.thread:            ; preds = %25, %rbimpl_RB_TYPE_P_fastpath.exit
  %42 = tail call i64 @rb_equal(i64 noundef %0, i64 noundef 1) #17
  %43 = icmp ne i64 %42, 0
  br label %44

44:                                               ; preds = %rbimpl_RB_TYPE_P_fastpath.exit.thread, %38, %rb_integer_type_p.exit.thread, %FLOAT_ZERO_P.exit
  %.0 = phi i1 [ %23, %FLOAT_ZERO_P.exit ], [ %33, %rb_integer_type_p.exit.thread ], [ %41, %38 ], [ %43, %rbimpl_RB_TYPE_P_fastpath.exit.thread ]
  ret i1 %.0
}